target datalayout = "e-m:e-p270:32:32-p271:32:32-p272:64:64-i64:64-i128:128-f80:128-n8:16:32:64-S128"
target triple = "x86_64-pc-linux-gnu"

%"class.std::_Function_base" = type { %"union.std::_Any_data", ptr }
%"union.std::_Any_data" = type { %"union.std::_Nocopy_types" }
%"union.std::_Nocopy_types" = type { { i64, i64 } }
%"class.cv::gimpl::GIslandExecutable" = type { ptr }
%"class.cv::gimpl::GParallelFluidExecutable" = type { %"class.cv::gimpl::GIslandExecutable", %"class.std::vector.510", %"class.std::function.515" }
%"class.std::vector.510" = type { %"struct.std::_Vector_base.511" }
%"struct.std::_Vector_base.511" = type { %"struct.std::_Vector_base<std::unique_ptr<cv::gimpl::GFluidExecutable>, std::allocator<std::unique_ptr<cv::gimpl::GFluidExecutable>>>::_Vector_impl" }
%"struct.std::_Vector_base<std::unique_ptr<cv::gimpl::GFluidExecutable>, std::allocator<std::unique_ptr<cv::gimpl::GFluidExecutable>>>::_Vector_impl" = type { %"struct.std::_Vector_base<std::unique_ptr<cv::gimpl::GFluidExecutable>, std::allocator<std::unique_ptr<cv::gimpl::GFluidExecutable>>>::_Vector_impl_data" }
%"struct.std::_Vector_base<std::unique_ptr<cv::gimpl::GFluidExecutable>, std::allocator<std::unique_ptr<cv::gimpl::GFluidExecutable>>>::_Vector_impl_data" = type { ptr, ptr, ptr }
%"class.std::function.515" = type { %"class.std::_Function_base", ptr }
%"class.std::function.524" = type { %"class.std::_Function_base", ptr }
%class.anon.527 = type { ptr, ptr, ptr }

; Function Attrs: mustprogress nounwind uwtable
define linkonce_odr hidden noundef ptr @_ZNSt9_Any_data9_M_accessEv(ptr noundef nonnull align 8 dereferenceable(16) %0) #7 comdat align 2 {
  %2 = alloca ptr, align 8
  store ptr %0, ptr %2, align 8, !tbaa !2132
  %3 = load ptr, ptr %2, align 8
  %4 = getelementptr inbounds [16 x i8], ptr %3, i64 0, i64 0
  ret ptr %4
}

; Function Attrs: mustprogress nounwind uwtable
define internal noundef nonnull align 8 dereferenceable(8) ptr @"_ZNSt9_Any_data9_M_accessIPZN2cv5gimpl24GParallelFluidExecutable3runEOSt6vectorISt4pairINS2_6RcDescENS1_7GRunArgEESaIS8_EEOS4_IS5_IS6_NS1_4util7variantIJPNS1_4UMatEPNS1_3MatEPNS1_4RMatEPNS1_7Scalar_IdEEPNS1_10MediaFrameENS1_6detail9VectorRefENSP_9OpaqueRefEEEEESaIST_EEE3$_0EERT_v"(ptr noundef nonnull align 8 dereferenceable(16) %0) #7 align 2 {
  %2 = alloca ptr, align 8
  store ptr %0, ptr %2, align 8, !tbaa !2132
  %3 = load ptr, ptr %2, align 8
  %4 = call noundef ptr @_ZNSt9_Any_data9_M_accessEv(ptr noundef nonnull align 8 dereferenceable(16) %3) #3
  ret ptr %4
}

; Function Attrs: mustprogress uwtable
define internal void @"_ZNSt14_Function_base13_Base_managerIZN2cv5gimpl24GParallelFluidExecutable3runEOSt6vectorISt4pairINS2_6RcDescENS1_7GRunArgEESaIS8_EEOS4_IS5_IS6_NS1_4util7variantIJPNS1_4UMatEPNS1_3MatEPNS1_4RMatEPNS1_7Scalar_IdEEPNS1_10MediaFrameENS1_6detail9VectorRefENSP_9OpaqueRefEEEEESaIST_EEE3$_0E9_M_createISX_EEvRSt9_Any_dataOT_St17integral_constantIbLb0EE"(ptr noundef nonnull align 8 dereferenceable(16) %0, ptr noundef nonnull align 8 dereferenceable(24) %1) #4 align 2 {
  %3 = alloca ptr, align 8
  %4 = alloca ptr, align 8
  store ptr %0, ptr %3, align 8, !tbaa !2132
  store ptr %1, ptr %4, align 8, !tbaa !259
  %5 = call noalias noundef nonnull ptr @_Znwm(i64 noundef 24) #27
  %6 = load ptr, ptr %4, align 8, !tbaa !259
  call void @llvm.memcpy.p0.p0.i64(ptr align 16 %5, ptr align 8 %6, i64 24, i1 false), !tbaa.struct !2886
  %7 = load ptr, ptr %3, align 8, !tbaa !2132
  %8 = call noundef nonnull align 8 dereferenceable(8) ptr @"_ZNSt9_Any_data9_M_accessIPZN2cv5gimpl24GParallelFluidExecutable3runEOSt6vectorISt4pairINS2_6RcDescENS1_7GRunArgEESaIS8_EEOS4_IS5_IS6_NS1_4util7variantIJPNS1_4UMatEPNS1_3MatEPNS1_4RMatEPNS1_7Scalar_IdEEPNS1_10MediaFrameENS1_6detail9VectorRefENSP_9OpaqueRefEEEEESaIST_EEE3$_0EERT_v"(ptr noundef nonnull align 8 dereferenceable(16) %7) #3
  store ptr %5, ptr %8, align 8, !tbaa !259
  ret void
}

; Function Attrs: mustprogress nounwind uwtable
define linkonce_odr hidden noundef zeroext i1 @_ZNKSt14_Function_base8_M_emptyEv(ptr noundef nonnull align 8 dereferenceable(24) %0) #7 comdat align 2 {
  %2 = alloca ptr, align 8
  store ptr %0, ptr %2, align 8, !tbaa !705
  %3 = load ptr, ptr %2, align 8
  %4 = getelementptr inbounds nuw %"class.std::_Function_base", ptr %3, i32 0, i32 1
  %5 = load ptr, ptr %4, align 8, !tbaa !687
  %6 = icmp ne ptr %5, null
  %7 = xor i1 %6, true
  ret i1 %7
}

; Function Attrs: mustprogress uwtable
define internal void @"_ZNSt14_Function_base13_Base_managerIZN2cv5gimpl24GParallelFluidExecutable3runEOSt6vectorISt4pairINS2_6RcDescENS1_7GRunArgEESaIS8_EEOS4_IS5_IS6_NS1_4util7variantIJPNS1_4UMatEPNS1_3MatEPNS1_4RMatEPNS1_7Scalar_IdEEPNS1_10MediaFrameENS1_6detail9VectorRefENSP_9OpaqueRefEEEEESaIST_EEE3$_0E15_M_init_functorISX_EEvRSt9_Any_dataOT_"(ptr noundef nonnull align 8 dereferenceable(16) %0, ptr noundef nonnull align 8 dereferenceable(24) %1) #4 align 2 {
  %3 = alloca ptr, align 8
  %4 = alloca ptr, align 8
  store ptr %0, ptr %3, align 8, !tbaa !2132
  store ptr %1, ptr %4, align 8, !tbaa !259
  %5 = load ptr, ptr %3, align 8, !tbaa !2132
  %6 = load ptr, ptr %4, align 8, !tbaa !259
  call void @"_ZNSt14_Function_base13_Base_managerIZN2cv5gimpl24GParallelFluidExecutable3runEOSt6vectorISt4pairINS2_6RcDescENS1_7GRunArgEESaIS8_EEOS4_IS5_IS6_NS1_4util7variantIJPNS1_4UMatEPNS1_3MatEPNS1_4RMatEPNS1_7Scalar_IdEEPNS1_10MediaFrameENS1_6detail9VectorRefENSP_9OpaqueRefEEEEESaIST_EEE3$_0E9_M_createISX_EEvRSt9_Any_dataOT_St17integral_constantIbLb0EE"(ptr noundef nonnull align 8 dereferenceable(16) %5, ptr noundef nonnull align 8 dereferenceable(24) %6)
  ret void
}

; Function Attrs: mustprogress nounwind uwtable
define internal noundef zeroext i1 @"_ZNSt14_Function_base13_Base_managerIZN2cv5gimpl24GParallelFluidExecutable3runEOSt6vectorISt4pairINS2_6RcDescENS1_7GRunArgEESaIS8_EEOS4_IS5_IS6_NS1_4util7variantIJPNS1_4UMatEPNS1_3MatEPNS1_4RMatEPNS1_7Scalar_IdEEPNS1_10MediaFrameENS1_6detail9VectorRefENSP_9OpaqueRefEEEEESaIST_EEE3$_0E21_M_not_empty_functionISX_EEbRKT_"(ptr noundef nonnull align 8 dereferenceable(24) %0) #7 align 2 {
  %2 = alloca ptr, align 8
  store ptr %0, ptr %2, align 8, !tbaa !259
  ret i1 true
}

; Function Attrs: mustprogress nounwind uwtable
define linkonce_odr hidden void @_ZNSt14_Function_baseC2Ev(ptr noundef nonnull align 8 dereferenceable(24) %0) unnamed_addr #7 comdat align 2 {
  %2 = alloca ptr, align 8
  store ptr %0, ptr %2, align 8, !tbaa !705
  %3 = load ptr, ptr %2, align 8
  %4 = getelementptr inbounds nuw %"class.std::_Function_base", ptr %3, i32 0, i32 0
  store ptr null, ptr %4, align 8, !tbaa !719
  %5 = getelementptr inbounds nuw %"class.std::_Function_base", ptr %3, i32 0, i32 1
  store ptr null, ptr %5, align 8, !tbaa !687
  ret void
}

; Function Attrs: mustprogress nounwind uwtable
define linkonce_odr hidden void @_ZNSt14_Function_baseD2Ev(ptr noundef nonnull align 8 dereferenceable(24) %0) unnamed_addr #7 comdat align 2 personality ptr @__gxx_personality_v0 {
  %2 = alloca ptr, align 8
  store ptr %0, ptr %2, align 8, !tbaa !705
  %3 = load ptr, ptr %2, align 8
  %4 = getelementptr inbounds nuw %"class.std::_Function_base", ptr %3, i32 0, i32 1
  %5 = load ptr, ptr %4, align 8, !tbaa !687
  %6 = icmp ne ptr %5, null
  br i1 %6, label %7, label %14

7:                                                ; preds = %1
  %8 = getelementptr inbounds nuw %"class.std::_Function_base", ptr %3, i32 0, i32 1
  %9 = load ptr, ptr %8, align 8, !tbaa !687
  %10 = getelementptr inbounds nuw %"class.std::_Function_base", ptr %3, i32 0, i32 0
  %11 = getelementptr inbounds nuw %"class.std::_Function_base", ptr %3, i32 0, i32 0
  %12 = invoke noundef zeroext i1 %9(ptr noundef nonnull align 8 dereferenceable(16) %10, ptr noundef nonnull align 8 dereferenceable(16) %11, i32 noundef 3)
          to label %13 unwind label %15

13:                                               ; preds = %7
  br label %14

14:                                               ; preds = %13, %1
  ret void

15:                                               ; preds = %7
  %16 = landingpad { ptr, i32 }
          catch ptr null
  %17 = extractvalue { ptr, i32 } %16, 0
  call void @__clang_call_terminate(ptr %17) #26
  unreachable
}

; Function Attrs: mustprogress uwtable
define linkonce_odr hidden void @_ZNKSt8functionIFvmS_IFvmEEEEclEmS1_(ptr noundef nonnull align 8 dereferenceable(32) %0, i64 noundef %1, ptr noundef %2) #4 comdat align 2 {
  %4 = alloca ptr, align 8
  %5 = alloca i64, align 8
  %6 = alloca ptr, align 8
  store ptr %0, ptr %4, align 8, !tbaa !681
  store i64 %1, ptr %5, align 8, !tbaa !145
  store ptr %2, ptr %6, align 8, !tbaa !701
  %7 = load ptr, ptr %4, align 8
  %8 = call noundef zeroext i1 @_ZNKSt14_Function_base8_M_emptyEv(ptr noundef nonnull align 8 dereferenceable(24) %7)
  br i1 %8, label %9, label %10

9:                                                ; preds = %3
  call void @_ZSt25__throw_bad_function_callv() #25
  unreachable

10:                                               ; preds = %3
  %11 = getelementptr inbounds nuw %"class.std::function.515", ptr %7, i32 0, i32 1
  %12 = load ptr, ptr %11, align 8, !tbaa !685
  %13 = getelementptr inbounds nuw %"class.std::_Function_base", ptr %7, i32 0, i32 0
  call void %12(ptr noundef nonnull align 8 dereferenceable(16) %13, ptr noundef nonnull align 8 dereferenceable(8) %5, ptr noundef nonnull align 8 dereferenceable(32) %2)
  ret void
}

; Function Attrs: mustprogress uwtable
define internal void @"_ZNSt8functionIFvmEEC2IZN2cv5gimpl24GParallelFluidExecutable3runEOSt6vectorISt4pairINS4_6RcDescENS3_7GRunArgEESaISA_EEOS6_IS7_IS8_NS3_4util7variantIJPNS3_4UMatEPNS3_3MatEPNS3_4RMatEPNS3_7Scalar_IdEEPNS3_10MediaFrameENS3_6detail9VectorRefENSR_9OpaqueRefEEEEESaISV_EEE3$_0vEEOT_"(ptr noundef nonnull align 8 dereferenceable(32) %0, ptr noundef nonnull align 8 dereferenceable(24) %1) unnamed_addr #4 align 2 personality ptr @__gxx_personality_v0 {
  %3 = alloca ptr, align 8
  %4 = alloca ptr, align 8
  %5 = alloca ptr, align 8
  %6 = alloca i32, align 4
  store ptr %0, ptr %3, align 8, !tbaa !701
  store ptr %1, ptr %4, align 8, !tbaa !259
  %7 = load ptr, ptr %3, align 8
  %8 = getelementptr inbounds i8, ptr %7, i64 0
  call void @llvm.memset.p0.i64(ptr align 8 %8, i8 0, i64 24, i1 false)
  call void @_ZNSt14_Function_baseC2Ev(ptr noundef nonnull align 8 dereferenceable(24) %7) #3
  %9 = getelementptr inbounds nuw %"class.std::function.524", ptr %7, i32 0, i32 1
  store ptr null, ptr %9, align 8, !tbaa !703
  %10 = load ptr, ptr %4, align 8, !tbaa !259
  %11 = call noundef zeroext i1 @"_ZNSt14_Function_base13_Base_managerIZN2cv5gimpl24GParallelFluidExecutable3runEOSt6vectorISt4pairINS2_6RcDescENS1_7GRunArgEESaIS8_EEOS4_IS5_IS6_NS1_4util7variantIJPNS1_4UMatEPNS1_3MatEPNS1_4RMatEPNS1_7Scalar_IdEEPNS1_10MediaFrameENS1_6detail9VectorRefENSP_9OpaqueRefEEEEESaIST_EEE3$_0E21_M_not_empty_functionISX_EEbRKT_"(ptr noundef nonnull align 8 dereferenceable(24) %10) #3
  br i1 %11, label %12, label %22

12:                                               ; preds = %2
  %13 = getelementptr inbounds nuw %"class.std::_Function_base", ptr %7, i32 0, i32 0
  %14 = load ptr, ptr %4, align 8, !tbaa !259
  invoke void @"_ZNSt14_Function_base13_Base_managerIZN2cv5gimpl24GParallelFluidExecutable3runEOSt6vectorISt4pairINS2_6RcDescENS1_7GRunArgEESaIS8_EEOS4_IS5_IS6_NS1_4util7variantIJPNS1_4UMatEPNS1_3MatEPNS1_4RMatEPNS1_7Scalar_IdEEPNS1_10MediaFrameENS1_6detail9VectorRefENSP_9OpaqueRefEEEEESaIST_EEE3$_0E15_M_init_functorISX_EEvRSt9_Any_dataOT_"(ptr noundef nonnull align 8 dereferenceable(16) %13, ptr noundef nonnull align 8 dereferenceable(24) %14)
          to label %15 unwind label %18

15:                                               ; preds = %12
  %16 = getelementptr inbounds nuw %"class.std::function.524", ptr %7, i32 0, i32 1
  store ptr @"_ZNSt17_Function_handlerIFvmEZN2cv5gimpl24GParallelFluidExecutable3runEOSt6vectorISt4pairINS2_6RcDescENS1_7GRunArgEESaIS8_EEOS4_IS5_IS6_NS1_4util7variantIJPNS1_4UMatEPNS1_3MatEPNS1_4RMatEPNS1_7Scalar_IdEEPNS1_10MediaFrameENS1_6detail9VectorRefENSP_9OpaqueRefEEEEESaIST_EEE3$_0E9_M_invokeERKSt9_Any_dataOm", ptr %16, align 8, !tbaa !703
  %17 = getelementptr inbounds nuw %"class.std::_Function_base", ptr %7, i32 0, i32 1
  store ptr @"_ZNSt17_Function_handlerIFvmEZN2cv5gimpl24GParallelFluidExecutable3runEOSt6vectorISt4pairINS2_6RcDescENS1_7GRunArgEESaIS8_EEOS4_IS5_IS6_NS1_4util7variantIJPNS1_4UMatEPNS1_3MatEPNS1_4RMatEPNS1_7Scalar_IdEEPNS1_10MediaFrameENS1_6detail9VectorRefENSP_9OpaqueRefEEEEESaIST_EEE3$_0E10_M_managerERSt9_Any_dataRKSZ_St18_Manager_operation", ptr %17, align 8, !tbaa !687
  br label %22

18:                                               ; preds = %12
  %19 = landingpad { ptr, i32 }
          cleanup
  %20 = extractvalue { ptr, i32 } %19, 0
  store ptr %20, ptr %5, align 8
  %21 = extractvalue { ptr, i32 } %19, 1
  store i32 %21, ptr %6, align 4
  call void @_ZNSt14_Function_baseD2Ev(ptr noundef nonnull align 8 dereferenceable(24) %7) #3
  br label %23

22:                                               ; preds = %15, %2
  ret void

23:                                               ; preds = %18
  %24 = load ptr, ptr %5, align 8
  %25 = load i32, ptr %6, align 4
  %26 = insertvalue { ptr, i32 } poison, ptr %24, 0
  %27 = insertvalue { ptr, i32 } %26, i32 %25, 1
  resume { ptr, i32 } %27
}

; Function Attrs: mustprogress nounwind uwtable
define linkonce_odr hidden noundef i64 @_ZNKSt6vectorISt10unique_ptrIN2cv5gimpl16GFluidExecutableESt14default_deleteIS3_EESaIS6_EE4sizeEv(ptr noundef nonnull align 8 dereferenceable(24) %0) #7 comdat align 2 {
  %2 = alloca ptr, align 8
  store ptr %0, ptr %2, align 8, !tbaa !683
  %3 = load ptr, ptr %2, align 8
  %4 = getelementptr inbounds nuw %"struct.std::_Vector_base.511", ptr %3, i32 0, i32 0
  %5 = getelementptr inbounds nuw %"struct.std::_Vector_base<std::unique_ptr<cv::gimpl::GFluidExecutable>, std::allocator<std::unique_ptr<cv::gimpl::GFluidExecutable>>>::_Vector_impl_data", ptr %4, i32 0, i32 1
  %6 = load ptr, ptr %5, align 8, !tbaa !694
  %7 = getelementptr inbounds nuw %"struct.std::_Vector_base.511", ptr %3, i32 0, i32 0
  %8 = getelementptr inbounds nuw %"struct.std::_Vector_base<std::unique_ptr<cv::gimpl::GFluidExecutable>, std::allocator<std::unique_ptr<cv::gimpl::GFluidExecutable>>>::_Vector_impl_data", ptr %7, i32 0, i32 0
  %9 = load ptr, ptr %8, align 8, !tbaa !698
  %10 = ptrtoint ptr %6 to i64
  %11 = ptrtoint ptr %9 to i64
  %12 = sub i64 %10, %11
  %13 = sdiv exact i64 %12, 8
  ret i64 %13
}

; Function Attrs: mustprogress uwtable
define hidden void @_ZN2cv5gimpl24GParallelFluidExecutable3runEOSt6vectorISt4pairINS0_6RcDescENS_7GRunArgEESaIS6_EEOS2_IS3_IS4_NS_4util7variantIJPNS_4UMatEPNS_3MatEPNS_4RMatEPNS_7Scalar_IdEEPNS_10MediaFrameENS_6detail9VectorRefENSN_9OpaqueRefEEEEESaISR_EE(ptr noundef nonnull align 8 dereferenceable(64) %0, ptr noundef nonnull align 8 dereferenceable(24) %1, ptr noundef nonnull align 8 dereferenceable(24) %2) unnamed_addr #4 align 2 personality ptr @__gxx_personality_v0 {
  %4 = alloca ptr, align 8
  %5 = alloca ptr, align 8
  %6 = alloca ptr, align 8
  %7 = alloca %"class.std::function.524", align 8
  %8 = alloca %class.anon.527, align 8
  %9 = alloca ptr, align 8
  %10 = alloca i32, align 4
  store ptr %0, ptr %4, align 8, !tbaa !677
  store ptr %1, ptr %5, align 8, !tbaa !632
  store ptr %2, ptr %6, align 8, !tbaa !634
  %11 = load ptr, ptr %4, align 8
  %12 = getelementptr inbounds nuw %"class.cv::gimpl::GParallelFluidExecutable", ptr %11, i32 0, i32 2
  %13 = getelementptr inbounds nuw %"class.cv::gimpl::GParallelFluidExecutable", ptr %11, i32 0, i32 1
  %14 = call noundef i64 @_ZNKSt6vectorISt10unique_ptrIN2cv5gimpl16GFluidExecutableESt14default_deleteIS3_EESaIS6_EE4sizeEv(ptr noundef nonnull align 8 dereferenceable(24) %13) #3
  call void @llvm.lifetime.start.p0(i64 24, ptr %8) #3
  %15 = getelementptr inbounds nuw %class.anon.527, ptr %8, i32 0, i32 0
  store ptr %11, ptr %15, align 8, !tbaa !699
  %16 = getelementptr inbounds nuw %class.anon.527, ptr %8, i32 0, i32 1
  %17 = load ptr, ptr %5, align 8, !tbaa !632
  store ptr %17, ptr %16, align 8, !tbaa !632
  %18 = getelementptr inbounds nuw %class.anon.527, ptr %8, i32 0, i32 2
  %19 = load ptr, ptr %6, align 8, !tbaa !634
  store ptr %19, ptr %18, align 8, !tbaa !634
  call void @"_ZNSt8functionIFvmEEC2IZN2cv5gimpl24GParallelFluidExecutable3runEOSt6vectorISt4pairINS4_6RcDescENS3_7GRunArgEESaISA_EEOS6_IS7_IS8_NS3_4util7variantIJPNS3_4UMatEPNS3_3MatEPNS3_4RMatEPNS3_7Scalar_IdEEPNS3_10MediaFrameENS3_6detail9VectorRefENSR_9OpaqueRefEEEEESaISV_EEE3$_0vEEOT_"(ptr noundef nonnull align 8 dereferenceable(32) %7, ptr noundef nonnull align 8 dereferenceable(24) %8)
  invoke void @_ZNKSt8functionIFvmS_IFvmEEEEclEmS1_(ptr noundef nonnull align 8 dereferenceable(32) %12, i64 noundef %14, ptr noundef %7)
          to label %20 unwind label %21

20:                                               ; preds = %3
  call void @_ZNSt14_Function_baseD2Ev(ptr noundef nonnull align 8 dereferenceable(32) %7) #3
  call void @llvm.lifetime.end.p0(i64 24, ptr %8) #3
  ret void

21:                                               ; preds = %3
  %22 = landingpad { ptr, i32 }
          cleanup
  %23 = extractvalue { ptr, i32 } %22, 0
  store ptr %23, ptr %9, align 8
  %24 = extractvalue { ptr, i32 } %22, 1
  store i32 %24, ptr %10, align 4
  call void @_ZNSt14_Function_baseD2Ev(ptr noundef nonnull align 8 dereferenceable(32) %7) #3
  call void @llvm.lifetime.end.p0(i64 24, ptr %8) #3
  br label %25

25:                                               ; preds = %21
  %26 = load ptr, ptr %9, align 8
  %27 = load i32, ptr %10, align 4
  %28 = insertvalue { ptr, i32 } poison, ptr %26, 0
  %29 = insertvalue { ptr, i32 } %28, i32 %27, 1
  resume { ptr, i32 } %29
}