; Function Attrs: mustprogress uwtable
define hidden void @_ZN2cv5gimpl24GParallelFluidExecutable3runEOSt6vectorISt4pairINS0_6RcDescENS_7GRunArgEESaIS6_EEOS2_IS3_IS4_NS_4util7variantIJPNS_4UMatEPNS_3MatEPNS_4RMatEPNS_7Scalar_IdEEPNS_10MediaFrameENS_6detail9VectorRefENSN_9OpaqueRefEEEEESaISR_EE(ptr noundef nonnull align 8 dereferenceable(64) %0, ptr noundef nonnull align 8 dereferenceable(24) %1, ptr noundef nonnull align 8 dereferenceable(24) %2) unnamed_addr #3 align 2 personality ptr @__gxx_personality_v0 {
  %4 = alloca i64, align 8
  %5 = alloca %"class.std::function.524", align 8
  %6 = getelementptr inbounds nuw i8, ptr %0, i64 8
  %7 = getelementptr inbounds nuw i8, ptr %0, i64 16
  %8 = load ptr, ptr %7, align 8, !tbaa !1177
  %9 = load ptr, ptr %6, align 8, !tbaa !1183
  %10 = ptrtoint ptr %8 to i64
  %11 = ptrtoint ptr %9 to i64
  %12 = sub i64 %10, %11
  %13 = ashr exact i64 %12, 3
  %14 = getelementptr inbounds nuw i8, ptr %5, i64 16
  %15 = getelementptr inbounds nuw i8, ptr %5, i64 24
  %16 = getelementptr inbounds nuw i8, ptr %5, i64 8
  store i64 0, ptr %16, align 8
  %17 = tail call noalias noundef nonnull dereferenceable(24) ptr @_Znwm(i64 noundef 24) #33
  store ptr %0, ptr %17, align 16, !tbaa !1191
  %.sroa.5.0..sroa_idx = getelementptr inbounds nuw i8, ptr %17, i64 8
  store ptr %1, ptr %.sroa.5.0..sroa_idx, align 8, !tbaa !1193
  %.sroa.6.0..sroa_idx = getelementptr inbounds nuw i8, ptr %17, i64 16
  store ptr %2, ptr %.sroa.6.0..sroa_idx, align 16, !tbaa !1195
  store ptr %17, ptr %5, align 8, !tbaa !39
  store ptr @"_ZNSt17_Function_handlerIFvmEZN2cv5gimpl24GParallelFluidExecutable3runEOSt6vectorISt4pairINS2_6RcDescENS1_7GRunArgEESaIS8_EEOS4_IS5_IS6_NS1_4util7variantIJPNS1_4UMatEPNS1_3MatEPNS1_4RMatEPNS1_7Scalar_IdEEPNS1_10MediaFrameENS1_6detail9VectorRefENSP_9OpaqueRefEEEEESaIST_EEE3$_0E9_M_invokeERKSt9_Any_dataOm", ptr %15, align 8, !tbaa !1197
  store ptr @"_ZNSt17_Function_handlerIFvmEZN2cv5gimpl24GParallelFluidExecutable3runEOSt6vectorISt4pairINS2_6RcDescENS1_7GRunArgEESaIS8_EEOS4_IS5_IS6_NS1_4util7variantIJPNS1_4UMatEPNS1_3MatEPNS1_4RMatEPNS1_7Scalar_IdEEPNS1_10MediaFrameENS1_6detail9VectorRefENSP_9OpaqueRefEEEEESaIST_EEE3$_0E10_M_managerERSt9_Any_dataRKSZ_St18_Manager_operation", ptr %14, align 8, !tbaa !130
  call void @llvm.lifetime.start.p0(i64 8, ptr nonnull %4)
  store i64 %13, ptr %4, align 8, !tbaa !75
  %18 = getelementptr inbounds nuw i8, ptr %0, i64 48
  %19 = load ptr, ptr %18, align 8, !tbaa !130
  %.not.i.i = icmp eq ptr %19, null
  br i1 %.not.i.i, label %20, label %21

20:                                               ; preds = %3
  invoke void @_ZSt25__throw_bad_function_callv() #35
          to label %.noexc unwind label %32

.noexc:                                           ; preds = %20
  unreachable

21:                                               ; preds = %3
  %22 = getelementptr inbounds nuw i8, ptr %0, i64 32
  %23 = getelementptr inbounds nuw i8, ptr %0, i64 56
  %24 = load ptr, ptr %23, align 8, !tbaa !1173
  invoke void %24(ptr noundef nonnull align 8 dereferenceable(32) %22, ptr noundef nonnull align 8 dereferenceable(8) %4, ptr noundef nonnull align 8 dereferenceable(32) %5)
          to label %25 unwind label %32

25:                                               ; preds = %21
  call void @llvm.lifetime.end.p0(i64 8, ptr nonnull %4)
  %26 = load ptr, ptr %14, align 8, !tbaa !130
  %.not.i = icmp eq ptr %26, null
  br i1 %.not.i, label %_ZNSt14_Function_baseD2Ev.exit, label %27

27:                                               ; preds = %25
  %28 = invoke noundef zeroext i1 %26(ptr noundef nonnull align 8 dereferenceable(32) %5, ptr noundef nonnull align 8 dereferenceable(32) %5, i32 noundef 3)
          to label %_ZNSt14_Function_baseD2Ev.exit unwind label %29

29:                                               ; preds = %27
  %30 = landingpad { ptr, i32 }
          catch ptr null
  %31 = extractvalue { ptr, i32 } %30, 0
  call void @__clang_call_terminate(ptr %31) #37
  unreachable

_ZNSt14_Function_baseD2Ev.exit:                   ; preds = %25, %27
  ret void

32:                                               ; preds = %21, %20
  %33 = landingpad { ptr, i32 }
          cleanup
  %34 = load ptr, ptr %14, align 8, !tbaa !130
  %.not.i5 = icmp eq ptr %34, null
  br i1 %.not.i5, label %_ZNSt14_Function_baseD2Ev.exit6, label %35

35:                                               ; preds = %32
  %36 = invoke noundef zeroext i1 %34(ptr noundef nonnull align 8 dereferenceable(32) %5, ptr noundef nonnull align 8 dereferenceable(32) %5, i32 noundef 3)
          to label %_ZNSt14_Function_baseD2Ev.exit6 unwind label %37

37:                                               ; preds = %35
  %38 = landingpad { ptr, i32 }
          catch ptr null
  %39 = extractvalue { ptr, i32 } %38, 0
  call void @__clang_call_terminate(ptr %39) #37
  unreachable

_ZNSt14_Function_baseD2Ev.exit6:                  ; preds = %32, %35
  resume { ptr, i32 } %33
}